target datalayout = "e-m:e-p270:32:32-p271:32:32-p272:64:64-i64:64-i128:128-f80:128-n8:16:32:64-S128"
target triple = "x86_64-pc-linux-gnu"

%struct.FormData_pg_proc = type { i32, %struct.nameData, i32, i32, i32, float, float, i32, i32, i8, i8, i8, i8, i8, i8, i8, i16, i16, i32, %struct.oidvector }
%struct.nameData = type { [64 x i8] }
%struct.oidvector = type { i32, i32, i32, i32, i32, i32, [0 x i32] }
%struct.HeapTupleData = type { i32, %struct.ItemPointerData, i32, ptr }
%struct.ItemPointerData = type { %struct.BlockIdData, i16 }
%struct.BlockIdData = type { i16, i16 }
%struct.HeapTupleHeaderData = type { %union.anon, %struct.ItemPointerData, i16, i16, i8, [0 x i8] }
%union.anon = type { %struct.HeapTupleFields }
%struct.HeapTupleFields = type { i32, i32, %union.anon.0 }
%union.anon.0 = type { i32 }
%struct.StringInfoData = type { ptr, i32, i32, i32 }

@.str.5 = private unnamed_addr constant [3 x i8] c"%u\00", align 1
@.str.7 = private unnamed_addr constant [4 x i8] c"%s(\00", align 1

; Function Attrs: inlinehint nounwind uwtable
define internal ptr @GETSTRUCT(ptr noundef %0) #2 {
  %2 = alloca ptr, align 8
  store ptr %0, ptr %2, align 8
  %3 = load ptr, ptr %2, align 8
  %4 = getelementptr inbounds nuw %struct.HeapTupleData, ptr %3, i32 0, i32 3
  %5 = load ptr, ptr %4, align 8
  %6 = load ptr, ptr %2, align 8
  %7 = getelementptr inbounds nuw %struct.HeapTupleData, ptr %6, i32 0, i32 3
  %8 = load ptr, ptr %7, align 8
  %9 = getelementptr inbounds nuw %struct.HeapTupleHeaderData, ptr %8, i32 0, i32 4
  %10 = load i8, ptr %9, align 2
  %11 = zext i8 %10 to i32
  %12 = sext i32 %11 to i64
  %13 = getelementptr inbounds i8, ptr %5, i64 %12
  ret ptr %13
}

; Function Attrs: inlinehint nounwind uwtable
define internal i64 @ObjectIdGetDatum(i32 noundef %0) #2 {
  %2 = alloca i32, align 4
  store i32 %0, ptr %2, align 4
  %3 = load i32, ptr %2, align 4
  %4 = zext i32 %3 to i64
  ret i64 %4
}

; Function Attrs: nounwind uwtable
define dso_local ptr @format_procedure_extended(i32 noundef %0, i16 noundef zeroext %1) #0 {
  %3 = alloca i32, align 4
  %4 = alloca i16, align 2
  %5 = alloca ptr, align 8
  %6 = alloca ptr, align 8
  %7 = alloca ptr, align 8
  %8 = alloca ptr, align 8
  %9 = alloca i32, align 4
  %10 = alloca i32, align 4
  %11 = alloca ptr, align 8
  %12 = alloca %struct.StringInfoData, align 8
  %13 = alloca i32, align 4
  store i32 %0, ptr %3, align 4
  store i16 %1, ptr %4, align 2
  call void @llvm.lifetime.start.p0(i64 8, ptr %5) #8
  call void @llvm.lifetime.start.p0(i64 8, ptr %6) #8
  %14 = load i32, ptr %3, align 4
  %15 = call i64 @ObjectIdGetDatum(i32 noundef %14)
  %16 = call ptr @SearchSysCache1(i32 noundef 47, i64 noundef %15)
  store ptr %16, ptr %6, align 8
  %17 = load ptr, ptr %6, align 8
  %18 = icmp ne ptr %17, null
  br i1 %18, label %19, label %82

19:                                               ; preds = %2
  call void @llvm.lifetime.start.p0(i64 8, ptr %7) #8
  %20 = load ptr, ptr %6, align 8
  %21 = call ptr @GETSTRUCT(ptr noundef %20)
  store ptr %21, ptr %7, align 8
  call void @llvm.lifetime.start.p0(i64 8, ptr %8) #8
  %22 = load ptr, ptr %7, align 8
  %23 = getelementptr inbounds nuw %struct.FormData_pg_proc, ptr %22, i32 0, i32 1
  %24 = getelementptr inbounds nuw %struct.nameData, ptr %23, i32 0, i32 0
  %25 = getelementptr inbounds [64 x i8], ptr %24, i64 0, i64 0
  store ptr %25, ptr %8, align 8
  call void @llvm.lifetime.start.p0(i64 4, ptr %9) #8
  %26 = load ptr, ptr %7, align 8
  %27 = getelementptr inbounds nuw %struct.FormData_pg_proc, ptr %26, i32 0, i32 16
  %28 = load i16, ptr %27, align 4
  %29 = sext i16 %28 to i32
  store i32 %29, ptr %9, align 4
  call void @llvm.lifetime.start.p0(i64 4, ptr %10) #8
  call void @llvm.lifetime.start.p0(i64 8, ptr %11) #8
  call void @llvm.lifetime.start.p0(i64 24, ptr %12) #8
  call void @initStringInfo(ptr noundef %12)
  %30 = load i16, ptr %4, align 2
  %31 = zext i16 %30 to i32
  %32 = and i32 %31, 2
  %33 = icmp eq i32 %32, 0
  br i1 %33, label %34, label %38

34:                                               ; preds = %19
  %35 = load i32, ptr %3, align 4
  %36 = call zeroext i1 @FunctionIsVisible(i32 noundef %35)
  br i1 %36, label %37, label %38

37:                                               ; preds = %34
  store ptr null, ptr %11, align 8
  br label %43

38:                                               ; preds = %34, %19
  %39 = load ptr, ptr %7, align 8
  %40 = getelementptr inbounds nuw %struct.FormData_pg_proc, ptr %39, i32 0, i32 2
  %41 = load i32, ptr %40, align 4
  %42 = call ptr @get_namespace_name(i32 noundef %41)
  store ptr %42, ptr %11, align 8
  br label %43

43:                                               ; preds = %38, %37
  %44 = load ptr, ptr %11, align 8
  %45 = load ptr, ptr %8, align 8
  %46 = call ptr @quote_qualified_identifier(ptr noundef %44, ptr noundef %45)
  call void (ptr, ptr, ...) @appendStringInfo(ptr noundef %12, ptr noundef @.str.7, ptr noundef %46)
  store i32 0, ptr %10, align 4
  br label %47

47:                                               ; preds = %75, %43
  %48 = load i32, ptr %10, align 4
  %49 = load i32, ptr %9, align 4
  %50 = icmp slt i32 %48, %49
  br i1 %50, label %51, label %78

51:                                               ; preds = %47
  call void @llvm.lifetime.start.p0(i64 4, ptr %13) #8
  %52 = load ptr, ptr %7, align 8
  %53 = getelementptr inbounds nuw %struct.FormData_pg_proc, ptr %52, i32 0, i32 19
  %54 = getelementptr inbounds nuw %struct.oidvector, ptr %53, i32 0, i32 6
  %55 = load i32, ptr %10, align 4
  %56 = sext i32 %55 to i64
  %57 = getelementptr inbounds [0 x i32], ptr %54, i64 0, i64 %56
  %58 = load i32, ptr %57, align 4
  store i32 %58, ptr %13, align 4
  %59 = load i32, ptr %10, align 4
  %60 = icmp sgt i32 %59, 0
  br i1 %60, label %61, label %62

61:                                               ; preds = %51
  call void @appendStringInfoChar(ptr noundef %12, i8 noundef signext 44)
  br label %62

62:                                               ; preds = %61, %51
  %63 = load i16, ptr %4, align 2
  %64 = zext i16 %63 to i32
  %65 = and i32 %64, 2
  %66 = icmp ne i32 %65, 0
  br i1 %66, label %67, label %70

67:                                               ; preds = %62
  %68 = load i32, ptr %13, align 4
  %69 = call ptr @format_type_be_qualified(i32 noundef %68)
  br label %73

70:                                               ; preds = %62
  %71 = load i32, ptr %13, align 4
  %72 = call ptr @format_type_be(i32 noundef %71)
  br label %73

73:                                               ; preds = %70, %67
  %74 = phi ptr [ %69, %67 ], [ %72, %70 ]
  call void @appendStringInfoString(ptr noundef %12, ptr noundef %74)
  call void @llvm.lifetime.end.p0(i64 4, ptr %13) #8
  br label %75

75:                                               ; preds = %73
  %76 = load i32, ptr %10, align 4
  %77 = add i32 %76, 1
  store i32 %77, ptr %10, align 4
  br label %47, !llvm.loop !14

78:                                               ; preds = %47
  call void @appendStringInfoChar(ptr noundef %12, i8 noundef signext 41)
  %79 = getelementptr inbounds nuw %struct.StringInfoData, ptr %12, i32 0, i32 0
  %80 = load ptr, ptr %79, align 8
  store ptr %80, ptr %5, align 8
  %81 = load ptr, ptr %6, align 8
  call void @ReleaseSysCache(ptr noundef %81)
  call void @llvm.lifetime.end.p0(i64 24, ptr %12) #8
  call void @llvm.lifetime.end.p0(i64 8, ptr %11) #8
  call void @llvm.lifetime.end.p0(i64 4, ptr %10) #8
  call void @llvm.lifetime.end.p0(i64 4, ptr %9) #8
  call void @llvm.lifetime.end.p0(i64 8, ptr %8) #8
  call void @llvm.lifetime.end.p0(i64 8, ptr %7) #8
  br label %94

82:                                               ; preds = %2
  %83 = load i16, ptr %4, align 2
  %84 = zext i16 %83 to i32
  %85 = and i32 %84, 1
  %86 = icmp ne i32 %85, 0
  br i1 %86, label %87, label %88

87:                                               ; preds = %82
  store ptr null, ptr %5, align 8
  br label %93

88:                                               ; preds = %82
  %89 = call ptr @palloc(i64 noundef 64)
  store ptr %89, ptr %5, align 8
  %90 = load ptr, ptr %5, align 8
  %91 = load i32, ptr %3, align 4
  %92 = call i32 (ptr, i64, ptr, ...) @pg_snprintf(ptr noundef %90, i64 noundef 64, ptr noundef @.str.5, i32 noundef %91)
  br label %93

93:                                               ; preds = %88, %87
  br label %94

94:                                               ; preds = %93, %78
  %95 = load ptr, ptr %5, align 8
  call void @llvm.lifetime.end.p0(i64 8, ptr %6) #8
  call void @llvm.lifetime.end.p0(i64 8, ptr %5) #8
  ret ptr %95
}