; Function Attrs: nounwind uwtable
define dso_local ptr @format_procedure_extended(i32 noundef %0, i16 noundef zeroext %1) local_unnamed_addr #0 {
  %3 = alloca %struct.StringInfoData, align 8
  %4 = zext i32 %0 to i64
  %5 = tail call ptr @SearchSysCache1(i32 noundef 47, i64 noundef %4) #9
  %.not = icmp eq ptr %5, null
  br i1 %.not, label %38, label %6

6:                                                ; preds = %2
  %7 = getelementptr i8, ptr %5, i64 16
  %.val = load ptr, ptr %7, align 8
  %8 = getelementptr inbounds nuw i8, ptr %.val, i64 22
  %9 = load i8, ptr %8, align 2
  %10 = zext i8 %9 to i64
  %11 = getelementptr inbounds nuw i8, ptr %.val, i64 %10
  %12 = getelementptr inbounds nuw i8, ptr %11, i64 4
  %13 = getelementptr inbounds nuw i8, ptr %11, i64 104
  %14 = load i16, ptr %13, align 4
  %wide.trip.count35 = sext i16 %14 to i64
  call void @llvm.lifetime.start.p0(i64 24, ptr nonnull %3) #9
  call void @initStringInfo(ptr noundef nonnull %3) #9
  %15 = and i16 %1, 2
  %16 = icmp eq i16 %15, 0
  br i1 %16, label %17, label %19

17:                                               ; preds = %6
  %18 = call zeroext i1 @FunctionIsVisible(i32 noundef %0) #9
  br i1 %18, label %23, label %19

19:                                               ; preds = %17, %6
  %20 = getelementptr inbounds nuw i8, ptr %11, i64 68
  %21 = load i32, ptr %20, align 4
  %22 = call ptr @get_namespace_name(i32 noundef %21) #9
  br label %23

23:                                               ; preds = %17, %19
  %.023 = phi ptr [ %22, %19 ], [ null, %17 ]
  %24 = call ptr @quote_qualified_identifier(ptr noundef %.023, ptr noundef nonnull %12) #9
  call void (ptr, ptr, ...) @appendStringInfo(ptr noundef nonnull %3, ptr noundef nonnull @.str.7, ptr noundef %24) #9
  %25 = icmp sgt i16 %14, 0
  br i1 %25, label %.lr.ph, label %._crit_edge

.lr.ph:                                           ; preds = %23
  %26 = getelementptr inbounds nuw i8, ptr %11, i64 136
  br i1 %16, label %.lr.ph.split.us, label %.lr.ph.split

.lr.ph.split.us:                                  ; preds = %.lr.ph, %30
  %indvars.iv32 = phi i64 [ %indvars.iv.next33, %30 ], [ 0, %.lr.ph ]
  %27 = getelementptr inbounds nuw [0 x i32], ptr %26, i64 0, i64 %indvars.iv32
  %28 = load i32, ptr %27, align 4
  %.not27.us = icmp eq i64 %indvars.iv32, 0
  br i1 %.not27.us, label %30, label %29

29:                                               ; preds = %.lr.ph.split.us
  call void @appendStringInfoChar(ptr noundef nonnull %3, i8 noundef signext 44) #9
  br label %30

30:                                               ; preds = %29, %.lr.ph.split.us
  %31 = call ptr @format_type_be(i32 noundef %28) #9
  call void @appendStringInfoString(ptr noundef nonnull %3, ptr noundef %31) #9
  %indvars.iv.next33 = add nuw nsw i64 %indvars.iv32, 1
  %exitcond36.not = icmp eq i64 %indvars.iv.next33, %wide.trip.count35
  br i1 %exitcond36.not, label %._crit_edge, label %.lr.ph.split.us, !llvm.loop !12

.lr.ph.split:                                     ; preds = %.lr.ph, %35
  %indvars.iv = phi i64 [ %indvars.iv.next, %35 ], [ 0, %.lr.ph ]
  %32 = getelementptr inbounds nuw [0 x i32], ptr %26, i64 0, i64 %indvars.iv
  %33 = load i32, ptr %32, align 4
  %.not27 = icmp eq i64 %indvars.iv, 0
  br i1 %.not27, label %35, label %34

34:                                               ; preds = %.lr.ph.split
  call void @appendStringInfoChar(ptr noundef nonnull %3, i8 noundef signext 44) #9
  br label %35

35:                                               ; preds = %34, %.lr.ph.split
  %36 = call ptr @format_type_be_qualified(i32 noundef %33) #9
  call void @appendStringInfoString(ptr noundef nonnull %3, ptr noundef %36) #9
  %indvars.iv.next = add nuw nsw i64 %indvars.iv, 1
  %exitcond.not = icmp eq i64 %indvars.iv.next, %wide.trip.count35
  br i1 %exitcond.not, label %._crit_edge, label %.lr.ph.split, !llvm.loop !12

._crit_edge:                                      ; preds = %35, %30, %23
  call void @appendStringInfoChar(ptr noundef nonnull %3, i8 noundef signext 41) #9
  %37 = load ptr, ptr %3, align 8
  call void @ReleaseSysCache(ptr noundef nonnull %5) #9
  call void @llvm.lifetime.end.p0(i64 24, ptr nonnull %3) #9
  br label %43

38:                                               ; preds = %2
  %39 = and i16 %1, 1
  %.not26 = icmp eq i16 %39, 0
  br i1 %.not26, label %40, label %43

40:                                               ; preds = %38
  %41 = tail call ptr @palloc(i64 noundef 64) #9
  %42 = tail call i32 (ptr, i64, ptr, ...) @pg_snprintf(ptr noundef %41, i64 noundef 64, ptr noundef nonnull @.str.5, i32 noundef %0) #9
  br label %43

43:                                               ; preds = %38, %40, %._crit_edge
  %.0 = phi ptr [ %37, %._crit_edge ], [ %41, %40 ], [ null, %38 ]
  ret ptr %.0
}